target datalayout = "e-m:e-p270:32:32-p271:32:32-p272:64:64-i64:64-i128:128-f80:128-n8:16:32:64-S128"
target triple = "x86_64-pc-linux-gnu"

; Function Attrs: null_pointer_is_valid sspstrong uwtable
define internal i32 @get_srvloc_pdu_len(ptr noundef %0, ptr noundef %1, i32 noundef %2, ptr noundef %3) #0 {
  %5 = alloca i32, align 4
  %6 = alloca ptr, align 8
  %7 = alloca ptr, align 8
  %8 = alloca i32, align 4
  %9 = alloca ptr, align 8
  store ptr %0, ptr %6, align 8
  store ptr %1, ptr %7, align 8
  store i32 %2, ptr %8, align 4
  store ptr %3, ptr %9, align 8
  %10 = load ptr, ptr %7, align 8
  %11 = load i32, ptr %8, align 4
  %12 = call zeroext i8 @tvb_get_uint8(ptr noundef %10, i32 noundef %11)
  %13 = zext i8 %12 to i32
  %14 = icmp eq i32 %13, 2
  br i1 %14, label %15, label %20

15:                                               ; preds = %4
  %16 = load ptr, ptr %7, align 8
  %17 = load i32, ptr %8, align 4
  %18 = add i32 %17, 2
  %19 = call i32 @tvb_get_ntoh24(ptr noundef %16, i32 noundef %18)
  store i32 %19, ptr %5, align 4
  br label %26

20:                                               ; preds = %4
  %21 = load ptr, ptr %7, align 8
  %22 = load i32, ptr %8, align 4
  %23 = add i32 %22, 2
  %24 = call zeroext i16 @tvb_get_ntohs(ptr noundef %21, i32 noundef %23)
  %25 = zext i16 %24 to i32
  store i32 %25, ptr %5, align 4
  br label %26

26:                                               ; preds = %20, %15
  %27 = load i32, ptr %5, align 4
  ret i32 %27
}