; Function Attrs: null_pointer_is_valid sspstrong uwtable
define internal i32 @get_srvloc_pdu_len(ptr readnone captures(none) %0, ptr noundef %1, i32 noundef %2, ptr readnone captures(none) %3) #0 {
  %5 = tail call zeroext i8 @tvb_get_uint8(ptr noundef %1, i32 noundef %2)
  %6 = icmp eq i8 %5, 2
  %7 = add i32 %2, 2
  br i1 %6, label %8, label %10

8:                                                ; preds = %4
  %9 = tail call i32 @tvb_get_ntoh24(ptr noundef %1, i32 noundef %7)
  br label %13

10:                                               ; preds = %4
  %11 = tail call zeroext i16 @tvb_get_ntohs(ptr noundef %1, i32 noundef %7)
  %12 = zext i16 %11 to i32
  br label %13

13:                                               ; preds = %10, %8
  %.0 = phi i32 [ %9, %8 ], [ %12, %10 ]
  ret i32 %.0
}